
.pio/build/flash/firmware.elf:     file format elf32-littleriscv


Disassembly of section .text.init:

00000000 <_start>:
   0:	b0201073          	csrw	minstret,zero
   4:	b8201073          	csrw	minstreth,zero
   8:	00000093          	li	ra,0
   c:	00000113          	li	sp,0
  10:	00000193          	li	gp,0
  14:	00000213          	li	tp,0
  18:	00000293          	li	t0,0
  1c:	00000313          	li	t1,0
  20:	00000393          	li	t2,0
  24:	00000413          	li	s0,0
  28:	00000493          	li	s1,0
  2c:	00000513          	li	a0,0
  30:	00000593          	li	a1,0
  34:	00000613          	li	a2,0
  38:	00000693          	li	a3,0
  3c:	00000713          	li	a4,0
  40:	00000793          	li	a5,0
  44:	00000813          	li	a6,0
  48:	00000893          	li	a7,0
  4c:	00000913          	li	s2,0
  50:	00000993          	li	s3,0
  54:	00000a13          	li	s4,0
  58:	00000a93          	li	s5,0
  5c:	00000b13          	li	s6,0
  60:	00000b93          	li	s7,0
  64:	00000c13          	li	s8,0
  68:	00000c93          	li	s9,0
  6c:	00000d13          	li	s10,0
  70:	00000d93          	li	s11,0
  74:	00000e13          	li	t3,0
  78:	00000e93          	li	t4,0
  7c:	00000f13          	li	t5,0
  80:	00000f93          	li	t6,0
  84:	55555337          	lui	t1,0x55555
  88:	55530313          	addi	t1,t1,1365 # 55555555 <_sw_int_mem_ctrl+0x51555555>
  8c:	7c031073          	csrw	0x7c0,t1
  90:	00003197          	auipc	gp,0x3
  94:	0a018193          	addi	gp,gp,160 # 3130 <__global_pointer$>
  98:	00004117          	auipc	sp,0x4
  9c:	89810113          	addi	sp,sp,-1896 # 3930 <_sp>
  a0:	00003517          	auipc	a0,0x3
  a4:	89050513          	addi	a0,a0,-1904 # 2930 <__bss_start>
  a8:	00003597          	auipc	a1,0x3
  ac:	88858593          	addi	a1,a1,-1912 # 2930 <__bss_start>
  b0:	00b57863          	bgeu	a0,a1,c0 <_start+0xc0>
  b4:	00052023          	sw	zero,0(a0)
  b8:	00450513          	addi	a0,a0,4
  bc:	feb56ce3          	bltu	a0,a1,b4 <_start+0xb4>
  c0:	63c000ef          	jal	ra,6fc <__libc_init_array>
  c4:	00000513          	li	a0,0
  c8:	00000593          	li	a1,0
  cc:	00c000ef          	jal	ra,d8 <main>
  d0:	0000006f          	j	d0 <_start+0xd0>
  d4:	0000                	unimp
	...

Disassembly of section .text:

000000d8 <main>:
  d8:	fb010113          	addi	sp,sp,-80
  dc:	04812423          	sw	s0,72(sp)
  e0:	04112623          	sw	ra,76(sp)
  e4:	05010413          	addi	s0,sp,80
  e8:	000015b7          	lui	a1,0x1
  ec:	03000613          	li	a2,48
  f0:	8ac58593          	addi	a1,a1,-1876 # 8ac <memcpy+0x11c>
  f4:	fc040513          	addi	a0,s0,-64
  f8:	698000ef          	jal	ra,790 <memcpy>
  fc:	00010513          	mv	a0,sp
 100:	fc040793          	addi	a5,s0,-64
 104:	ff040613          	addi	a2,s0,-16
 108:	00000593          	li	a1,0
 10c:	00200813          	li	a6,2
 110:	0007a683          	lw	a3,0(a5)
 114:	0016f713          	andi	a4,a3,1
 118:	00071c63          	bnez	a4,130 <main+0x58>
 11c:	00d85a63          	bge	a6,a3,130 <main+0x58>
 120:	00259713          	slli	a4,a1,0x2
 124:	00e50733          	add	a4,a0,a4
 128:	00d72023          	sw	a3,0(a4)
 12c:	00158593          	addi	a1,a1,1
 130:	00478793          	addi	a5,a5,4
 134:	fcf61ee3          	bne	a2,a5,110 <main+0x38>
 138:	fab42e23          	sw	a1,-68(s0)
 13c:	230000ef          	jal	ra,36c <uartInit>
 140:	fbc42583          	lw	a1,-68(s0)
 144:	00001537          	lui	a0,0x1
 148:	8dc50513          	addi	a0,a0,-1828 # 8dc <memcpy+0x14c>
 14c:	554000ef          	jal	ra,6a0 <printfNexys>
 150:	0000006f          	j	150 <main+0x78>

00000154 <bsp_strlen>:
 154:	00050793          	mv	a5,a0
 158:	0007c703          	lbu	a4,0(a5)
 15c:	00071663          	bnez	a4,168 <bsp_strlen+0x14>
 160:	40a78533          	sub	a0,a5,a0
 164:	00008067          	ret
 168:	00178793          	addi	a5,a5,1
 16c:	fedff06f          	j	158 <bsp_strlen+0x4>

00000170 <printUartPutchar>:
 170:	ff010113          	addi	sp,sp,-16
 174:	00812423          	sw	s0,8(sp)
 178:	00112623          	sw	ra,12(sp)
 17c:	00a00793          	li	a5,10
 180:	00050413          	mv	s0,a0
 184:	00f51663          	bne	a0,a5,190 <printUartPutchar+0x20>
 188:	00d00513          	li	a0,13
 18c:	fe5ff0ef          	jal	ra,170 <printUartPutchar>
 190:	80002737          	lui	a4,0x80002
 194:	01472783          	lw	a5,20(a4) # 80002014 <OVERLAY_END_OF_OVERLAYS+0xa0002014>
 198:	0207f793          	andi	a5,a5,32
 19c:	fe078ce3          	beqz	a5,194 <printUartPutchar+0x24>
 1a0:	00872023          	sw	s0,0(a4)
 1a4:	00c12083          	lw	ra,12(sp)
 1a8:	00812403          	lw	s0,8(sp)
 1ac:	00000513          	li	a0,0
 1b0:	01010113          	addi	sp,sp,16
 1b4:	00008067          	ret

000001b8 <padding>:
 1b8:	0105a783          	lw	a5,16(a1)
 1bc:	04078663          	beqz	a5,208 <padding+0x50>
 1c0:	04050463          	beqz	a0,208 <padding+0x50>
 1c4:	ff010113          	addi	sp,sp,-16
 1c8:	00912223          	sw	s1,4(sp)
 1cc:	0005a483          	lw	s1,0(a1)
 1d0:	00812423          	sw	s0,8(sp)
 1d4:	00112623          	sw	ra,12(sp)
 1d8:	00058413          	mv	s0,a1
 1dc:	00442783          	lw	a5,4(s0)
 1e0:	00f4da63          	bge	s1,a5,1f4 <padding+0x3c>
 1e4:	00c44503          	lbu	a0,12(s0)
 1e8:	00148493          	addi	s1,s1,1
 1ec:	f85ff0ef          	jal	ra,170 <printUartPutchar>
 1f0:	fedff06f          	j	1dc <padding+0x24>
 1f4:	00c12083          	lw	ra,12(sp)
 1f8:	00812403          	lw	s0,8(sp)
 1fc:	00412483          	lw	s1,4(sp)
 200:	01010113          	addi	sp,sp,16
 204:	00008067          	ret
 208:	00008067          	ret

0000020c <outnum>:
 20c:	f9010113          	addi	sp,sp,-112
 210:	05312e23          	sw	s3,92(sp)
 214:	00058993          	mv	s3,a1
 218:	000015b7          	lui	a1,0x1
 21c:	06812423          	sw	s0,104(sp)
 220:	06912223          	sw	s1,100(sp)
 224:	8f858593          	addi	a1,a1,-1800 # 8f8 <memcpy+0x168>
 228:	00050413          	mv	s0,a0
 22c:	00060493          	mv	s1,a2
 230:	00810513          	addi	a0,sp,8
 234:	01100613          	li	a2,17
 238:	06112623          	sw	ra,108(sp)
 23c:	07212023          	sw	s2,96(sp)
 240:	550000ef          	jal	ra,790 <memcpy>
 244:	000015b7          	lui	a1,0x1
 248:	01100613          	li	a2,17
 24c:	90c58593          	addi	a1,a1,-1780 # 90c <memcpy+0x17c>
 250:	01c10513          	addi	a0,sp,28
 254:	53c000ef          	jal	ra,790 <memcpy>
 258:	00a00793          	li	a5,10
 25c:	0cf99463          	bne	s3,a5,324 <outnum+0x118>
 260:	0c045263          	bgez	s0,324 <outnum+0x118>
 264:	40800533          	neg	a0,s0
 268:	00100613          	li	a2,1
 26c:	0184a783          	lw	a5,24(s1)
 270:	00810713          	addi	a4,sp,8
 274:	00079463          	bnez	a5,27c <outnum+0x70>
 278:	01c10713          	addi	a4,sp,28
 27c:	03010913          	addi	s2,sp,48
 280:	00a00693          	li	a3,10
 284:	00090793          	mv	a5,s2
 288:	00f00593          	li	a1,15
 28c:	0ad99863          	bne	s3,a3,33c <outnum+0x130>
 290:	00a00593          	li	a1,10
 294:	00900813          	li	a6,9
 298:	02b576b3          	remu	a3,a0,a1
 29c:	00178793          	addi	a5,a5,1
 2a0:	00d706b3          	add	a3,a4,a3
 2a4:	0006c683          	lbu	a3,0(a3)
 2a8:	fed78fa3          	sb	a3,-1(a5)
 2ac:	02b556b3          	divu	a3,a0,a1
 2b0:	08a86063          	bltu	a6,a0,330 <outnum+0x124>
 2b4:	00060863          	beqz	a2,2c4 <outnum+0xb8>
 2b8:	02d00713          	li	a4,45
 2bc:	00e78023          	sb	a4,0(a5)
 2c0:	00178793          	addi	a5,a5,1
 2c4:	00078023          	sb	zero,0(a5)
 2c8:	00090513          	mv	a0,s2
 2cc:	fff78413          	addi	s0,a5,-1
 2d0:	e85ff0ef          	jal	ra,154 <bsp_strlen>
 2d4:	00a4a023          	sw	a0,0(s1)
 2d8:	0144a503          	lw	a0,20(s1)
 2dc:	00048593          	mv	a1,s1
 2e0:	00040993          	mv	s3,s0
 2e4:	00153513          	seqz	a0,a0
 2e8:	ed1ff0ef          	jal	ra,1b8 <padding>
 2ec:	01246863          	bltu	s0,s2,2fc <outnum+0xf0>
 2f0:	01c4a703          	lw	a4,28(s1)
 2f4:	408987b3          	sub	a5,s3,s0
 2f8:	06e7c263          	blt	a5,a4,35c <outnum+0x150>
 2fc:	0144a503          	lw	a0,20(s1)
 300:	00048593          	mv	a1,s1
 304:	eb5ff0ef          	jal	ra,1b8 <padding>
 308:	06c12083          	lw	ra,108(sp)
 30c:	06812403          	lw	s0,104(sp)
 310:	06412483          	lw	s1,100(sp)
 314:	06012903          	lw	s2,96(sp)
 318:	05c12983          	lw	s3,92(sp)
 31c:	07010113          	addi	sp,sp,112
 320:	00008067          	ret
 324:	00040513          	mv	a0,s0
 328:	00000613          	li	a2,0
 32c:	f41ff06f          	j	26c <outnum+0x60>
 330:	00068513          	mv	a0,a3
 334:	f65ff06f          	j	298 <outnum+0x8c>
 338:	00068513          	mv	a0,a3
 33c:	00f57693          	andi	a3,a0,15
 340:	00d706b3          	add	a3,a4,a3
 344:	0006c683          	lbu	a3,0(a3)
 348:	00178793          	addi	a5,a5,1
 34c:	fed78fa3          	sb	a3,-1(a5)
 350:	00455693          	srli	a3,a0,0x4
 354:	fea5e2e3          	bltu	a1,a0,338 <outnum+0x12c>
 358:	f5dff06f          	j	2b4 <outnum+0xa8>
 35c:	fff40413          	addi	s0,s0,-1
 360:	00144503          	lbu	a0,1(s0)
 364:	e0dff0ef          	jal	ra,170 <printUartPutchar>
 368:	f85ff06f          	j	2ec <outnum+0xe0>

0000036c <uartInit>:
 36c:	800027b7          	lui	a5,0x80002
 370:	0ff00713          	li	a4,255
 374:	00e7aa23          	sw	a4,20(a5) # 80002014 <OVERLAY_END_OF_OVERLAYS+0xa0002014>
 378:	08000713          	li	a4,128
 37c:	00e7a623          	sw	a4,12(a5)
 380:	01b00713          	li	a4,27
 384:	00e7a023          	sw	a4,0(a5)
 388:	00300713          	li	a4,3
 38c:	00e7a623          	sw	a4,12(a5)
 390:	08700713          	li	a4,135
 394:	00e7a423          	sw	a4,8(a5)
 398:	0007a223          	sw	zero,4(a5)
 39c:	00008067          	ret

000003a0 <uart_printf>:
 3a0:	00008737          	lui	a4,0x8
 3a4:	f9010113          	addi	sp,sp,-112
 3a8:	fff70793          	addi	a5,a4,-1 # 7fff <_sp+0x46cf>
 3ac:	06812423          	sw	s0,104(sp)
 3b0:	05412c23          	sw	s4,88(sp)
 3b4:	05512a23          	sw	s5,84(sp)
 3b8:	05a12023          	sw	s10,64(sp)
 3bc:	06112623          	sw	ra,108(sp)
 3c0:	06912223          	sw	s1,100(sp)
 3c4:	07212023          	sw	s2,96(sp)
 3c8:	05312e23          	sw	s3,92(sp)
 3cc:	05612823          	sw	s6,80(sp)
 3d0:	05712623          	sw	s7,76(sp)
 3d4:	05812423          	sw	s8,72(sp)
 3d8:	05912223          	sw	s9,68(sp)
 3dc:	03b12e23          	sw	s11,60(sp)
 3e0:	00050413          	mv	s0,a0
 3e4:	00058d13          	mv	s10,a1
 3e8:	02500a13          	li	s4,37
 3ec:	00f12623          	sw	a5,12(sp)
 3f0:	06400a93          	li	s5,100
 3f4:	00044503          	lbu	a0,0(s0)
 3f8:	04051063          	bnez	a0,438 <uart_printf+0x98>
 3fc:	06c12083          	lw	ra,108(sp)
 400:	06812403          	lw	s0,104(sp)
 404:	06412483          	lw	s1,100(sp)
 408:	06012903          	lw	s2,96(sp)
 40c:	05c12983          	lw	s3,92(sp)
 410:	05812a03          	lw	s4,88(sp)
 414:	05412a83          	lw	s5,84(sp)
 418:	05012b03          	lw	s6,80(sp)
 41c:	04c12b83          	lw	s7,76(sp)
 420:	04812c03          	lw	s8,72(sp)
 424:	04412c83          	lw	s9,68(sp)
 428:	04012d03          	lw	s10,64(sp)
 42c:	03c12d83          	lw	s11,60(sp)
 430:	07010113          	addi	sp,sp,112
 434:	00008067          	ret
 438:	01450663          	beq	a0,s4,444 <uart_printf+0xa4>
 43c:	d35ff0ef          	jal	ra,170 <printUartPutchar>
 440:	1140006f          	j	554 <uart_printf+0x1b4>
 444:	00c12783          	lw	a5,12(sp)
 448:	02000713          	li	a4,32
 44c:	00e10e23          	sb	a4,28(sp)
 450:	00a00713          	li	a4,10
 454:	02012023          	sw	zero,32(sp)
 458:	02012223          	sw	zero,36(sp)
 45c:	00f12c23          	sw	a5,24(sp)
 460:	02e12623          	sw	a4,44(sp)
 464:	00040493          	mv	s1,s0
 468:	00000b13          	li	s6,0
 46c:	00900993          	li	s3,9
 470:	07300b93          	li	s7,115
 474:	00100c13          	li	s8,1
 478:	02e00c93          	li	s9,46
 47c:	05c00d93          	li	s11,92
 480:	0014c503          	lbu	a0,1(s1)
 484:	00140413          	addi	s0,s0,1
 488:	fd050713          	addi	a4,a0,-48
 48c:	0ff77713          	andi	a4,a4,255
 490:	08e9e463          	bltu	s3,a4,518 <uart_printf+0x178>
 494:	040b0263          	beqz	s6,4d8 <uart_printf+0x138>
 498:	00000713          	li	a4,0
 49c:	00a00593          	li	a1,10
 4a0:	01c0006f          	j	4bc <uart_printf+0x11c>
 4a4:	00100b13          	li	s6,1
 4a8:	00040493          	mv	s1,s0
 4ac:	fd5ff06f          	j	480 <uart_printf+0xe0>
 4b0:	02b70733          	mul	a4,a4,a1
 4b4:	00140413          	addi	s0,s0,1
 4b8:	00e68733          	add	a4,a3,a4
 4bc:	00044683          	lbu	a3,0(s0)
 4c0:	fd068693          	addi	a3,a3,-48
 4c4:	0ff6f613          	andi	a2,a3,255
 4c8:	fec9f4e3          	bgeu	s3,a2,4b0 <uart_printf+0x110>
 4cc:	00e12c23          	sw	a4,24(sp)
 4d0:	fff40413          	addi	s0,s0,-1
 4d4:	fd5ff06f          	j	4a8 <uart_printf+0x108>
 4d8:	03000713          	li	a4,48
 4dc:	00e51463          	bne	a0,a4,4e4 <uart_printf+0x144>
 4e0:	00a10e23          	sb	a0,28(sp)
 4e4:	00000713          	li	a4,0
 4e8:	00a00593          	li	a1,10
 4ec:	00044683          	lbu	a3,0(s0)
 4f0:	fd068693          	addi	a3,a3,-48
 4f4:	0ff6f613          	andi	a2,a3,255
 4f8:	00c9f863          	bgeu	s3,a2,508 <uart_printf+0x168>
 4fc:	00e12a23          	sw	a4,20(sp)
 500:	03812023          	sw	s8,32(sp)
 504:	fcdff06f          	j	4d0 <uart_printf+0x130>
 508:	02b70733          	mul	a4,a4,a1
 50c:	00140413          	addi	s0,s0,1
 510:	00e68733          	add	a4,a3,a4
 514:	fd9ff06f          	j	4ec <uart_printf+0x14c>
 518:	fbf50693          	addi	a3,a0,-65
 51c:	0ff6f693          	andi	a3,a3,255
 520:	01a6b613          	sltiu	a2,a3,26
 524:	02c12423          	sw	a2,40(sp)
 528:	01900793          	li	a5,25
 52c:	00050713          	mv	a4,a0
 530:	00d7e463          	bltu	a5,a3,538 <uart_printf+0x198>
 534:	02050713          	addi	a4,a0,32
 538:	09570863          	beq	a4,s5,5c8 <uart_printf+0x228>
 53c:	02eace63          	blt	s5,a4,578 <uart_printf+0x1d8>
 540:	f79702e3          	beq	a4,s9,4a4 <uart_printf+0x104>
 544:	00eccc63          	blt	s9,a4,55c <uart_printf+0x1bc>
 548:	07470863          	beq	a4,s4,5b8 <uart_printf+0x218>
 54c:	02d00693          	li	a3,45
 550:	06d70863          	beq	a4,a3,5c0 <uart_printf+0x220>
 554:	00140413          	addi	s0,s0,1
 558:	e9dff06f          	j	3f4 <uart_printf+0x54>
 55c:	0fb70a63          	beq	a4,s11,650 <uart_printf+0x2b0>
 560:	06300693          	li	a3,99
 564:	fed718e3          	bne	a4,a3,554 <uart_printf+0x1b4>
 568:	000d4503          	lbu	a0,0(s10)
 56c:	004d0493          	addi	s1,s10,4
 570:	c01ff0ef          	jal	ra,170 <printUartPutchar>
 574:	0680006f          	j	5dc <uart_printf+0x23c>
 578:	07770663          	beq	a4,s7,5e4 <uart_printf+0x244>
 57c:	02ebc663          	blt	s7,a4,5a8 <uart_printf+0x208>
 580:	06c00793          	li	a5,108
 584:	f2f702e3          	beq	a4,a5,4a8 <uart_printf+0x108>
 588:	07000693          	li	a3,112
 58c:	fcd714e3          	bne	a4,a3,554 <uart_printf+0x1b4>
 590:	00800713          	li	a4,8
 594:	004d0493          	addi	s1,s10,4
 598:	02e12623          	sw	a4,44(sp)
 59c:	01010613          	addi	a2,sp,16
 5a0:	01000593          	li	a1,16
 5a4:	0300006f          	j	5d4 <uart_printf+0x234>
 5a8:	07500693          	li	a3,117
 5ac:	00d70e63          	beq	a4,a3,5c8 <uart_printf+0x228>
 5b0:	07800693          	li	a3,120
 5b4:	fd9ff06f          	j	58c <uart_printf+0x1ec>
 5b8:	02500513          	li	a0,37
 5bc:	e81ff06f          	j	43c <uart_printf+0x9c>
 5c0:	03812223          	sw	s8,36(sp)
 5c4:	ee5ff06f          	j	4a8 <uart_printf+0x108>
 5c8:	004d0493          	addi	s1,s10,4
 5cc:	01010613          	addi	a2,sp,16
 5d0:	00a00593          	li	a1,10
 5d4:	000d2503          	lw	a0,0(s10)
 5d8:	c35ff0ef          	jal	ra,20c <outnum>
 5dc:	00048d13          	mv	s10,s1
 5e0:	f75ff06f          	j	554 <uart_printf+0x1b4>
 5e4:	000d2483          	lw	s1,0(s10)
 5e8:	004d0913          	addi	s2,s10,4
 5ec:	00048513          	mv	a0,s1
 5f0:	b65ff0ef          	jal	ra,154 <bsp_strlen>
 5f4:	00a12823          	sw	a0,16(sp)
 5f8:	02412503          	lw	a0,36(sp)
 5fc:	01010593          	addi	a1,sp,16
 600:	00153513          	seqz	a0,a0
 604:	bb5ff0ef          	jal	ra,1b8 <padding>
 608:	0004c783          	lbu	a5,0(s1)
 60c:	02079263          	bnez	a5,630 <uart_printf+0x290>
 610:	00048513          	mv	a0,s1
 614:	b41ff0ef          	jal	ra,154 <bsp_strlen>
 618:	00a12823          	sw	a0,16(sp)
 61c:	02412503          	lw	a0,36(sp)
 620:	01010593          	addi	a1,sp,16
 624:	00090d13          	mv	s10,s2
 628:	b91ff0ef          	jal	ra,1b8 <padding>
 62c:	f29ff06f          	j	554 <uart_printf+0x1b4>
 630:	01812783          	lw	a5,24(sp)
 634:	fff78713          	addi	a4,a5,-1
 638:	00e12c23          	sw	a4,24(sp)
 63c:	fc078ae3          	beqz	a5,610 <uart_printf+0x270>
 640:	00148493          	addi	s1,s1,1
 644:	fff4c503          	lbu	a0,-1(s1)
 648:	b29ff0ef          	jal	ra,170 <printUartPutchar>
 64c:	fbdff06f          	j	608 <uart_printf+0x268>
 650:	06800713          	li	a4,104
 654:	02e50e63          	beq	a0,a4,690 <uart_printf+0x2f0>
 658:	00a76c63          	bltu	a4,a0,670 <uart_printf+0x2d0>
 65c:	06100713          	li	a4,97
 660:	02e50463          	beq	a0,a4,688 <uart_printf+0x2e8>
 664:	b0dff0ef          	jal	ra,170 <printUartPutchar>
 668:	00248413          	addi	s0,s1,2
 66c:	e3dff06f          	j	4a8 <uart_printf+0x108>
 670:	06e00713          	li	a4,110
 674:	02e50263          	beq	a0,a4,698 <uart_printf+0x2f8>
 678:	07200713          	li	a4,114
 67c:	fee514e3          	bne	a0,a4,664 <uart_printf+0x2c4>
 680:	00d00513          	li	a0,13
 684:	fe1ff06f          	j	664 <uart_printf+0x2c4>
 688:	00700513          	li	a0,7
 68c:	fd9ff06f          	j	664 <uart_printf+0x2c4>
 690:	00800513          	li	a0,8
 694:	fd1ff06f          	j	664 <uart_printf+0x2c4>
 698:	00a00513          	li	a0,10
 69c:	fc9ff06f          	j	664 <uart_printf+0x2c4>

000006a0 <printfNexys>:
 6a0:	fc010113          	addi	sp,sp,-64
 6a4:	00812c23          	sw	s0,24(sp)
 6a8:	00112e23          	sw	ra,28(sp)
 6ac:	02b12223          	sw	a1,36(sp)
 6b0:	02c12423          	sw	a2,40(sp)
 6b4:	02d12623          	sw	a3,44(sp)
 6b8:	02e12823          	sw	a4,48(sp)
 6bc:	02f12a23          	sw	a5,52(sp)
 6c0:	03012c23          	sw	a6,56(sp)
 6c4:	03112e23          	sw	a7,60(sp)
 6c8:	00000413          	li	s0,0
 6cc:	00050a63          	beqz	a0,6e0 <printfNexys+0x40>
 6d0:	02410593          	addi	a1,sp,36
 6d4:	00b12623          	sw	a1,12(sp)
 6d8:	cc9ff0ef          	jal	ra,3a0 <uart_printf>
 6dc:	00050413          	mv	s0,a0
 6e0:	00a00513          	li	a0,10
 6e4:	a8dff0ef          	jal	ra,170 <printUartPutchar>
 6e8:	00040513          	mv	a0,s0
 6ec:	01c12083          	lw	ra,28(sp)
 6f0:	01812403          	lw	s0,24(sp)
 6f4:	04010113          	addi	sp,sp,64
 6f8:	00008067          	ret

000006fc <__libc_init_array>:
 6fc:	ff010113          	addi	sp,sp,-16
 700:	00812423          	sw	s0,8(sp)
 704:	01212023          	sw	s2,0(sp)
 708:	00000417          	auipc	s0,0x0
 70c:	8f840413          	addi	s0,s0,-1800 # 0 <__comrv_align_size>
 710:	00000917          	auipc	s2,0x0
 714:	8f090913          	addi	s2,s2,-1808 # 0 <__comrv_align_size>
 718:	40890933          	sub	s2,s2,s0
 71c:	00112623          	sw	ra,12(sp)
 720:	00912223          	sw	s1,4(sp)
 724:	40295913          	srai	s2,s2,0x2
 728:	00090e63          	beqz	s2,744 <__libc_init_array+0x48>
 72c:	00000493          	li	s1,0
 730:	00042783          	lw	a5,0(s0)
 734:	00148493          	addi	s1,s1,1
 738:	00440413          	addi	s0,s0,4
 73c:	000780e7          	jalr	a5
 740:	fe9918e3          	bne	s2,s1,730 <__libc_init_array+0x34>
 744:	00000417          	auipc	s0,0x0
 748:	8bc40413          	addi	s0,s0,-1860 # 0 <__comrv_align_size>
 74c:	00000917          	auipc	s2,0x0
 750:	8b490913          	addi	s2,s2,-1868 # 0 <__comrv_align_size>
 754:	40890933          	sub	s2,s2,s0
 758:	40295913          	srai	s2,s2,0x2
 75c:	00090e63          	beqz	s2,778 <__libc_init_array+0x7c>
 760:	00000493          	li	s1,0
 764:	00042783          	lw	a5,0(s0)
 768:	00148493          	addi	s1,s1,1
 76c:	00440413          	addi	s0,s0,4
 770:	000780e7          	jalr	a5
 774:	fe9918e3          	bne	s2,s1,764 <__libc_init_array+0x68>
 778:	00c12083          	lw	ra,12(sp)
 77c:	00812403          	lw	s0,8(sp)
 780:	00412483          	lw	s1,4(sp)
 784:	00012903          	lw	s2,0(sp)
 788:	01010113          	addi	sp,sp,16
 78c:	00008067          	ret

00000790 <memcpy>:
 790:	00a5c7b3          	xor	a5,a1,a0
 794:	0037f793          	andi	a5,a5,3
 798:	00c508b3          	add	a7,a0,a2
 79c:	06079263          	bnez	a5,800 <memcpy+0x70>
 7a0:	00300793          	li	a5,3
 7a4:	04c7fe63          	bgeu	a5,a2,800 <memcpy+0x70>
 7a8:	00357793          	andi	a5,a0,3
 7ac:	00050713          	mv	a4,a0
 7b0:	06079863          	bnez	a5,820 <memcpy+0x90>
 7b4:	ffc8f613          	andi	a2,a7,-4
 7b8:	fe060793          	addi	a5,a2,-32
 7bc:	08f76c63          	bltu	a4,a5,854 <memcpy+0xc4>
 7c0:	02c77c63          	bgeu	a4,a2,7f8 <memcpy+0x68>
 7c4:	00058693          	mv	a3,a1
 7c8:	00070793          	mv	a5,a4
 7cc:	0006a803          	lw	a6,0(a3)
 7d0:	00478793          	addi	a5,a5,4
 7d4:	00468693          	addi	a3,a3,4
 7d8:	ff07ae23          	sw	a6,-4(a5)
 7dc:	fec7e8e3          	bltu	a5,a2,7cc <memcpy+0x3c>
 7e0:	fff60793          	addi	a5,a2,-1
 7e4:	40e787b3          	sub	a5,a5,a4
 7e8:	ffc7f793          	andi	a5,a5,-4
 7ec:	00478793          	addi	a5,a5,4
 7f0:	00f70733          	add	a4,a4,a5
 7f4:	00f585b3          	add	a1,a1,a5
 7f8:	01176863          	bltu	a4,a7,808 <memcpy+0x78>
 7fc:	00008067          	ret
 800:	00050713          	mv	a4,a0
 804:	ff157ce3          	bgeu	a0,a7,7fc <memcpy+0x6c>
 808:	0005c783          	lbu	a5,0(a1)
 80c:	00170713          	addi	a4,a4,1
 810:	00158593          	addi	a1,a1,1
 814:	fef70fa3          	sb	a5,-1(a4)
 818:	ff1768e3          	bltu	a4,a7,808 <memcpy+0x78>
 81c:	00008067          	ret
 820:	0005c683          	lbu	a3,0(a1)
 824:	00170713          	addi	a4,a4,1
 828:	00377793          	andi	a5,a4,3
 82c:	fed70fa3          	sb	a3,-1(a4)
 830:	00158593          	addi	a1,a1,1
 834:	f80780e3          	beqz	a5,7b4 <memcpy+0x24>
 838:	0005c683          	lbu	a3,0(a1)
 83c:	00170713          	addi	a4,a4,1
 840:	00377793          	andi	a5,a4,3
 844:	fed70fa3          	sb	a3,-1(a4)
 848:	00158593          	addi	a1,a1,1
 84c:	fc079ae3          	bnez	a5,820 <memcpy+0x90>
 850:	f65ff06f          	j	7b4 <memcpy+0x24>
 854:	0005a683          	lw	a3,0(a1)
 858:	0045a283          	lw	t0,4(a1)
 85c:	0085af83          	lw	t6,8(a1)
 860:	00c5af03          	lw	t5,12(a1)
 864:	0105ae83          	lw	t4,16(a1)
 868:	0145ae03          	lw	t3,20(a1)
 86c:	0185a303          	lw	t1,24(a1)
 870:	01c5a803          	lw	a6,28(a1)
 874:	02458593          	addi	a1,a1,36
 878:	00d72023          	sw	a3,0(a4)
 87c:	ffc5a683          	lw	a3,-4(a1)
 880:	00572223          	sw	t0,4(a4)
 884:	01f72423          	sw	t6,8(a4)
 888:	01e72623          	sw	t5,12(a4)
 88c:	01d72823          	sw	t4,16(a4)
 890:	01c72a23          	sw	t3,20(a4)
 894:	00672c23          	sw	t1,24(a4)
 898:	01072e23          	sw	a6,28(a4)
 89c:	02470713          	addi	a4,a4,36
 8a0:	fed72e23          	sw	a3,-4(a4)
 8a4:	faf768e3          	bltu	a4,a5,854 <memcpy+0xc4>
 8a8:	f19ff06f          	j	7c0 <memcpy+0x30>
